; Function Attrs: mustprogress nofree norecurse nosync nounwind willreturn memory(argmem: read) uwtable
define dso_local noundef nonnull ptr @_ZN7testing8internal12UnitTestImpl19current_test_resultEv(ptr noundef nonnull readonly align 8 captures(ret: address, provenance) dereferenceable(601) %0) local_unnamed_addr #18 align 2 {
  %2 = getelementptr inbounds nuw i8, ptr %0, i64 368
  %3 = load ptr, ptr %2, align 8, !tbaa !289
  %.not = icmp eq ptr %3, null
  br i1 %.not, label %6, label %4

4:                                                ; preds = %1
  %5 = getelementptr inbounds nuw i8, ptr %3, i64 144
  br label %13

6:                                                ; preds = %1
  %7 = getelementptr inbounds nuw i8, ptr %0, i64 360
  %8 = load ptr, ptr %7, align 8, !tbaa !290
  %.not4 = icmp eq ptr %8, null
  br i1 %.not4, label %11, label %9

9:                                                ; preds = %6
  %10 = getelementptr inbounds nuw i8, ptr %8, i64 136
  br label %13

11:                                               ; preds = %6
  %12 = getelementptr inbounds nuw i8, ptr %0, i64 376
  br label %13

13:                                               ; preds = %11, %9, %4
  %.0 = phi ptr [ %5, %4 ], [ %10, %9 ], [ %12, %11 ]
  ret ptr %.0
}